; Function Attrs: mustprogress nofree norecurse nosync nounwind willreturn memory(read, inaccessiblemem: none) uwtable
define internal noundef ptr @"_ZZNK4Luau6TxnLog6followEPKNS_4TypeEEN3$_08__invokeEPKvS3_"(ptr nocapture noundef readonly %0, ptr noundef %1) #8 align 2 {
  %3 = ptrtoint ptr %1 to i64
  %4 = lshr i64 %3, 4
  %5 = lshr i64 %3, 9
  %6 = xor i64 %4, %5
  br label %7

7:                                                ; preds = %_ZNK4Luau12DenseHashMapIPKNS_4TypeESt10unique_ptrINS_11PendingTypeESt14default_deleteIS5_EENS_16DenseHashPointerESt8equal_toIS3_EE4findERKS3_.exit.thread.i.i, %2
  %.0814.i.i = phi ptr [ %0, %2 ], [ %36, %_ZNK4Luau12DenseHashMapIPKNS_4TypeESt10unique_ptrINS_11PendingTypeESt14default_deleteIS5_EENS_16DenseHashPointerESt8equal_toIS3_EE4findERKS3_.exit.thread.i.i ]
  %8 = getelementptr inbounds i8, ptr %.0814.i.i, i64 16
  %9 = load i64, ptr %8, align 8
  %10 = icmp eq i64 %9, 0
  br i1 %10, label %_ZNK4Luau12DenseHashMapIPKNS_4TypeESt10unique_ptrINS_11PendingTypeESt14default_deleteIS5_EENS_16DenseHashPointerESt8equal_toIS3_EE4findERKS3_.exit.thread.i.i, label %11

11:                                               ; preds = %7
  %12 = getelementptr inbounds i8, ptr %.0814.i.i, i64 24
  %13 = load ptr, ptr %12, align 8
  %14 = icmp eq ptr %13, %1
  br i1 %14, label %_ZNK4Luau12DenseHashMapIPKNS_4TypeESt10unique_ptrINS_11PendingTypeESt14default_deleteIS5_EENS_16DenseHashPointerESt8equal_toIS3_EE4findERKS3_.exit.thread.i.i, label %15

15:                                               ; preds = %11
  %16 = getelementptr inbounds i8, ptr %.0814.i.i, i64 8
  %17 = load i64, ptr %16, align 8
  %18 = add i64 %17, -1
  %19 = load ptr, ptr %.0814.i.i, align 8
  br label %20

20:                                               ; preds = %26, %15
  %.pn.i.i.i.i = phi i64 [ %6, %15 ], [ %28, %26 ]
  %.01519.i.i.i.i = phi i64 [ 0, %15 ], [ %27, %26 ]
  %.01620.i.i.i.i = and i64 %.pn.i.i.i.i, %18
  %21 = getelementptr inbounds %"struct.std::pair.132", ptr %19, i64 %.01620.i.i.i.i
  %22 = load ptr, ptr %21, align 8
  %23 = icmp eq ptr %22, %1
  br i1 %23, label %29, label %24

24:                                               ; preds = %20
  %25 = icmp eq ptr %22, %13
  br i1 %25, label %_ZNK4Luau12DenseHashMapIPKNS_4TypeESt10unique_ptrINS_11PendingTypeESt14default_deleteIS5_EENS_16DenseHashPointerESt8equal_toIS3_EE4findERKS3_.exit.thread.i.i, label %26

26:                                               ; preds = %24
  %27 = add i64 %.01519.i.i.i.i, 1
  %28 = add i64 %27, %.01620.i.i.i.i
  %.not.i.i.i.i = icmp ugt i64 %27, %18
  br i1 %.not.i.i.i.i, label %_ZNK4Luau12DenseHashMapIPKNS_4TypeESt10unique_ptrINS_11PendingTypeESt14default_deleteIS5_EENS_16DenseHashPointerESt8equal_toIS3_EE4findERKS3_.exit.thread.i.i, label %20, !llvm.loop !19

29:                                               ; preds = %20
  %30 = getelementptr inbounds i8, ptr %21, i64 8
  %31 = load ptr, ptr %30, align 8
  %32 = getelementptr inbounds i8, ptr %31, i64 400
  %33 = load i8, ptr %32, align 8
  %34 = trunc i8 %33 to i1
  br i1 %34, label %_ZNK4Luau12DenseHashMapIPKNS_4TypeESt10unique_ptrINS_11PendingTypeESt14default_deleteIS5_EENS_16DenseHashPointerESt8equal_toIS3_EE4findERKS3_.exit.thread.i.i, label %"_ZZNK4Luau6TxnLog6followEPKNS_4TypeEENK3$_0clEPKvS3_.exit"

_ZNK4Luau12DenseHashMapIPKNS_4TypeESt10unique_ptrINS_11PendingTypeESt14default_deleteIS5_EENS_16DenseHashPointerESt8equal_toIS3_EE4findERKS3_.exit.thread.i.i: ; preds = %26, %24, %29, %11, %7
  %35 = getelementptr inbounds i8, ptr %.0814.i.i, i64 80
  %36 = load ptr, ptr %35, align 8
  %.not.i.i = icmp eq ptr %36, null
  br i1 %.not.i.i, label %"_ZZNK4Luau6TxnLog6followEPKNS_4TypeEENK3$_0clEPKvS3_.exit", label %7, !llvm.loop !32

"_ZZNK4Luau6TxnLog6followEPKNS_4TypeEENK3$_0clEPKvS3_.exit": ; preds = %29, %_ZNK4Luau12DenseHashMapIPKNS_4TypeESt10unique_ptrINS_11PendingTypeESt14default_deleteIS5_EENS_16DenseHashPointerESt8equal_toIS3_EE4findERKS3_.exit.thread.i.i
  %.0.i.i = phi ptr [ null, %_ZNK4Luau12DenseHashMapIPKNS_4TypeESt10unique_ptrINS_11PendingTypeESt14default_deleteIS5_EENS_16DenseHashPointerESt8equal_toIS3_EE4findERKS3_.exit.thread.i.i ], [ %31, %29 ]
  %37 = icmp eq ptr %.0.i.i, null
  %..i = select i1 %37, ptr %1, ptr %.0.i.i
  ret ptr %..i
}